; Function Attrs: nounwind uwtable
define range(i32 -2147483648, 1) i32 @ff_vvc_annexb2mp4_buf(ptr noundef %0, ptr noundef %1, ptr noundef captures(none) %2, i32 noundef %3, ptr noundef writeonly captures(address_is_null) %4) local_unnamed_addr #0 {
  %6 = alloca ptr, align 8
  call void @llvm.lifetime.start.p0(i64 8, ptr nonnull %6) #8
  %7 = call i32 @avio_open_dyn_buf(ptr noundef nonnull %6) #8
  %8 = icmp slt i32 %7, 0
  br i1 %8, label %18, label %9

9:                                                ; preds = %5
  %10 = load ptr, ptr %6, align 8, !tbaa !14
  %11 = load i32, ptr %2, align 4, !tbaa !4
  %12 = call i32 @ff_vvc_annexb2mp4(ptr noundef %10, ptr noundef %0, i32 noundef %11, i32 noundef %3, ptr noundef %4)
  %13 = icmp slt i32 %12, 0
  br i1 %13, label %14, label %15

14:                                               ; preds = %9
  call void @ffio_free_dyn_buf(ptr noundef nonnull %6) #8
  br label %18

15:                                               ; preds = %9
  %16 = load ptr, ptr %6, align 8, !tbaa !14
  %17 = call i32 @avio_close_dyn_buf(ptr noundef %16, ptr noundef %1) #8
  store i32 %17, ptr %2, align 4, !tbaa !4
  br label %18

18:                                               ; preds = %5, %15, %14
  %.0 = phi i32 [ %12, %14 ], [ 0, %15 ], [ %7, %5 ]
  call void @llvm.lifetime.end.p0(i64 8, ptr nonnull %6) #8
  ret i32 %.0
}